target datalayout = "e-m:e-p270:32:32-p271:32:32-p272:64:64-i64:64-i128:128-f80:128-n8:16:32:64-S128"
target triple = "x86_64-pc-linux-gnu"

%struct.H5MF_free_section_t = type { %struct.H5FS_section_info_t }
%struct.H5FS_section_info_t = type { i64, i64, i32, i32 }

; Function Attrs: nounwind uwtable
define internal i32 @H5MF__sect_simple_can_merge(ptr noundef %0, ptr noundef %1, ptr noundef %2) #0 {
  %4 = alloca ptr, align 8
  %5 = alloca ptr, align 8
  %6 = alloca ptr, align 8
  %7 = alloca ptr, align 8
  %8 = alloca ptr, align 8
  %9 = alloca i32, align 4
  store ptr %0, ptr %4, align 8
  store ptr %1, ptr %5, align 8
  store ptr %2, ptr %6, align 8
  %10 = load ptr, ptr %4, align 8
  store ptr %10, ptr %7, align 8
  %11 = load ptr, ptr %5, align 8
  store ptr %11, ptr %8, align 8
  store i32 -1, ptr %9, align 4
  %12 = load ptr, ptr %7, align 8
  %13 = getelementptr inbounds %struct.H5MF_free_section_t, ptr %12, i32 0, i32 0
  %14 = getelementptr inbounds %struct.H5FS_section_info_t, ptr %13, i32 0, i32 0
  %15 = load i64, ptr %14, align 8
  %16 = load ptr, ptr %7, align 8
  %17 = getelementptr inbounds %struct.H5MF_free_section_t, ptr %16, i32 0, i32 0
  %18 = getelementptr inbounds %struct.H5FS_section_info_t, ptr %17, i32 0, i32 1
  %19 = load i64, ptr %18, align 8
  %20 = add i64 %15, %19
  %21 = icmp ne i64 %20, -1
  br i1 %21, label %22, label %37

22:                                               ; preds = %3
  %23 = load ptr, ptr %7, align 8
  %24 = getelementptr inbounds %struct.H5MF_free_section_t, ptr %23, i32 0, i32 0
  %25 = getelementptr inbounds %struct.H5FS_section_info_t, ptr %24, i32 0, i32 0
  %26 = load i64, ptr %25, align 8
  %27 = load ptr, ptr %7, align 8
  %28 = getelementptr inbounds %struct.H5MF_free_section_t, ptr %27, i32 0, i32 0
  %29 = getelementptr inbounds %struct.H5FS_section_info_t, ptr %28, i32 0, i32 1
  %30 = load i64, ptr %29, align 8
  %31 = add i64 %26, %30
  %32 = load ptr, ptr %8, align 8
  %33 = getelementptr inbounds %struct.H5MF_free_section_t, ptr %32, i32 0, i32 0
  %34 = getelementptr inbounds %struct.H5FS_section_info_t, ptr %33, i32 0, i32 0
  %35 = load i64, ptr %34, align 8
  %36 = icmp eq i64 %31, %35
  br label %37

37:                                               ; preds = %22, %3
  %38 = phi i1 [ false, %3 ], [ %36, %22 ]
  %39 = zext i1 %38 to i32
  store i32 %39, ptr %9, align 4
  %40 = load i32, ptr %9, align 4
  ret i32 %40
}