; Function Attrs: mustprogress nofree norecurse nosync nounwind willreturn memory(argmem: read) uwtable
define internal range(i32 0, 2) i32 @H5MF__sect_simple_can_merge(ptr nocapture noundef readonly %0, ptr nocapture noundef readonly %1, ptr nocapture readnone %2) #1 {
  %4 = load i64, ptr %0, align 8
  %5 = getelementptr inbounds i8, ptr %0, i64 8
  %6 = load i64, ptr %5, align 8
  %7 = add i64 %6, %4
  %.not = icmp eq i64 %7, -1
  br i1 %.not, label %12, label %8

8:                                                ; preds = %3
  %9 = load i64, ptr %1, align 8
  %10 = icmp eq i64 %7, %9
  %11 = zext i1 %10 to i32
  br label %12

12:                                               ; preds = %8, %3
  %13 = phi i32 [ 0, %3 ], [ %11, %8 ]
  ret i32 %13
}